Certificate with multiple URI SANs, signed by root-ca.
URI SANs are in invalid format.

-----BEGIN CERTIFICATE-----
MIIDmDCCAoCgAwIBAgIJAPUyAfpLGbt9MA0GCSqGSIb3DQEBBQUAMGcxCzAJBgNV
BAYTAlVTMQ0wCwYDVQQIDARVdGFoMQ4wDAYDVQQHDAVQcm92bzEjMCEGA1UECgwa
QUNNRSBTaWduaW5nIEF1dGhvcml0eSBJbmMxFDASBgNVBAMMC2V4YW1wbGUuY29t
MB4XDTIwMTEyMDA4MTk1OFoXDTQ4MDQwNjA4MTk1OFowXTELMAkGA1UEBhMCVVMx
DTALBgNVBAgMBFV0YWgxDjAMBgNVBAcMBVByb3ZvMRYwFAYDVQQKDA1BQ01FIFRl
Y2ggSW5jMRcwFQYDVQQDDA5teS5leGFtcGxlLmNvbTCCASIwDQYJKoZIhvcNAQEB
BQADggEPADCCAQoCggEBAOK1yhT6VEGTUgB8OpsVd27MM87h5QrIhe27ppO8wszW
YJY4ZANJcIjstRBGkfD1CmTBo/VENGkKGRaGST4hQh1ozezM2QyEjDlgECfay8mR
vaCQahCxXHVi50mVFlp3BX77n5xoPwQAQ5vReyHN459X/jJCr/l8KtxtVaLsPpRy
3Fs/52Dd4AkgcVyJXTKi4CcfLeNDGMunWUwHspGFqWQXT0fLh5WiO2K+HfCHNUrj
IoynDe5KLyCDqPYzzaUXIHgC7JolW+MzOWLF9akSOyVGqae4D8MMvnRDkfXgfiwj
VWVYqAmAGanvqQfnBqG87PJyrbHYNqzrtAwExd2yrpECAwEAAaNRME8wTQYDVR0R
BEYwRIYMaHR0cDovL2VjaG81hhVodHRwczovL2VjaG81LXNwZWNpYWyGHXNlcnZp
Y2U6Ly9lY2hvNS1hZG1pbj9lbnY9ZGV2MA0GCSqGSIb3DQEBBQUAA4IBAQC4YBw8
NymAmqwUrilbTQDCkArCoydbMWluCuTlnYWurgkVEWmUZRPTi2drr40zs+oniaYd
ElW+C7vqKaBvYqzN3M1nEEJG8TmvuyDSzk2eFI0pn4u0mToZQKuQVQ7zl5+oXHrE
E9g34B2T61MVxLR/7rZgQIJBPMqhbTZ/heFi6+EeSvTlu0m2L/88gDLbIDjqW8cx
cw5p62GqJ/ITtuxwVgZHzQFsAw4HRdmlvPoSo3KU2SeYLw2KqzYiYNMgVl8Or+82
ZKCkA01O3qJ0oKDdFqLGEEPkK/EhsMvzoIDXakfjjt0oDX/I77dgNaBlGZ/qkkxC
vfoqakANCJz1qKDC
-----END CERTIFICATE-----

Certificate:
    Data:
        Version: 3 (0x2)
        Serial Number: 17668186462641306493 (0xf53201fa4b19bb7d)
    Signature Algorithm: sha1WithRSAEncryption
        Issuer: C=US, ST=Utah, L=Provo, O=ACME Signing Authority Inc, CN=example.com
        Validity
            Not Before: Nov 20 08:19:58 2020 GMT
            Not After : Apr  6 08:19:58 2048 GMT
        Subject: C=US, ST=Utah, L=Provo, O=ACME Tech Inc, CN=my.example.com
        Subject Public Key Info:
            Public Key Algorithm: rsaEncryption
                Public-Key: (2048 bit)
                Modulus:
                    00:e2:b5:ca:14:fa:54:41:93:52:00:7c:3a:9b:15:
                    77:6e:cc:33:ce:e1:e5:0a:c8:85:ed:bb:a6:93:bc:
                    c2:cc:d6:60:96:38:64:03:49:70:88:ec:b5:10:46:
                    91:f0:f5:0a:64:c1:a3:f5:44:34:69:0a:19:16:86:
                    49:3e:21:42:1d:68:cd:ec:cc:d9:0c:84:8c:39:60:
                    10:27:da:cb:c9:91:bd:a0:90:6a:10:b1:5c:75:62:
                    e7:49:95:16:5a:77:05:7e:fb:9f:9c:68:3f:04:00:
                    43:9b:d1:7b:21:cd:e3:9f:57:fe:32:42:af:f9:7c:
                    2a:dc:6d:55:a2:ec:3e:94:72:dc:5b:3f:e7:60:dd:
                    e0:09:20:71:5c:89:5d:32:a2:e0:27:1f:2d:e3:43:
                    18:cb:a7:59:4c:07:b2:91:85:a9:64:17:4f:47:cb:
                    87:95:a2:3b:62:be:1d:f0:87:35:4a:e3:22:8c:a7:
                    0d:ee:4a:2f:20:83:a8:f6:33:cd:a5:17:20:78:02:
                    ec:9a:25:5b:e3:33:39:62:c5:f5:a9:12:3b:25:46:
                    a9:a7:b8:0f:c3:0c:be:74:43:91:f5:e0:7e:2c:23:
                    55:65:58:a8:09:80:19:a9:ef:a9:07:e7:06:a1:bc:
                    ec:f2:72:ad:b1:d8:36:ac:eb:b4:0c:04:c5:dd:b2:
                    ae:91
                Exponent: 65537 (0x10001)
        X509v3 extensions:
            X509v3 Subject Alternative Name:
                URI:http://echo5, URI:https://echo5-special, URI:service://echo5-admin?env=dev
    Signature Algorithm: sha1WithRSAEncryption
         b8:60:1c:3c:37:29:80:9a:ac:14:ae:29:5b:4d:00:c2:90:0a:
         c2:a3:27:5b:31:69:6e:0a:e4:e5:9d:85:ae:ae:09:15:11:69:
         94:65:13:d3:8b:67:6b:af:8d:33:b3:ea:27:89:a6:1d:12:55:
         be:0b:bb:ea:29:a0:6f:62:ac:cd:dc:cd:67:10:42:46:f1:39:
         af:bb:20:d2:ce:4d:9e:14:8d:29:9f:8b:b4:99:3a:19:40:ab:
         90:55:0e:f3:97:9f:a8:5c:7a:c4:13:d8:37:e0:1d:93:eb:53:
         15:c4:b4:7f:ee:b6:60:40:82:41:3c:ca:a1:6d:36:7f:85:e1:
         62:eb:e1:1e:4a:f4:e5:bb:49:b6:2f:ff:3c:80:32:db:20:38:
         ea:5b:c7:31:73:0e:69:eb:61:aa:27:f2:13:b6:ec:70:56:06:
         47:cd:01:6c:03:0e:07:45:d9:a5:bc:fa:12:a3:72:94:d9:27:
         98:2f:0d:8a:ab:36:22:60:d3:20:56:5f:0e:af:ef:36:64:a0:
         a4:03:4d:4e:de:a2:74:a0:a0:dd:16:a2:c6:10:43:e4:2b:f1:
         21:b0:cb:f3:a0:80:d7:6a:47:e3:8e:dd:28:0d:7f:c8:ef:b7:
         60:35:a0:65:19:9f:ea:92:4c:42:bd:fa:2a:6a:40:0d:08:9c:
         f5:a8:a0:c2

