Certificate with multiple URI SANs, signed by root-ca

-----BEGIN CERTIFICATE-----
MIIDkjCCAnqgAwIBAgIJAPUyAfpLGbt8MA0GCSqGSIb3DQEBBQUAMGcxCzAJBgNV
BAYTAlVTMQ0wCwYDVQQIDARVdGFoMQ4wDAYDVQQHDAVQcm92bzEjMCEGA1UECgwa
QUNNRSBTaWduaW5nIEF1dGhvcml0eSBJbmMxFDASBgNVBAMMC2V4YW1wbGUuY29t
MB4XDTIwMTEyMDA2NTc1OFoXDTQ4MDQwNjA2NTc1OFowXTELMAkGA1UEBhMCVVMx
DTALBgNVBAgMBFV0YWgxDjAMBgNVBAcMBVByb3ZvMRYwFAYDVQQKDA1BQ01FIFRl
Y2ggSW5jMRcwFQYDVQQDDA5teS5leGFtcGxlLmNvbTCCASIwDQYJKoZIhvcNAQEB
BQADggEPADCCAQoCggEBAMthmZI+XdR/JvC5HgqouQ04IZsQKcyEBkbG35MbzPZz
fUTf1ecPIst3HWWmzq9w6kjVO6SQFhTy6CT57Z66p8wJs4Z4jBxs+de8TDZduXcE
y+hSZ64jqhWBz/pGrhxvW7pfBR7K5FTuF/tBlHwFb7XmTmGebX5v39rllbOy5ucf
e00W1T1ATpCy+kpnSVNtVClhny52VONFW540cW1NVDL2peOBk4WTTuYqL+qt2dxM
nMs9xn22VfIz/CHtXLQJXIR7h58O1/Rr3hQHPoXfWYC7pUG3LiN0Q/bt7CS/Mkjk
AqvTyhalx6SwyOch0va3aXNyd3UMWbCm78UrfwfDdpUCAwEAAaNLMEkwRwYDVR0R
BEAwPoYOc3BpZmZlOi8vZWNobzSGFnNwaWZmZTovL2VjaG80LXNwZWNpYWyGFHNw
aWZmZTovL2VjaG80LWFkbWluMA0GCSqGSIb3DQEBBQUAA4IBAQAbtW/moR+KHsab
jVZT+qMNpwoeAl0V4Md45Pg9ZK4QGhO30zz4zpMqW0CTZ/jUYXwB1McFj3ygHNJv
ni7WTk92ZyKmuFb067KoV0A9/aSGUsZHHGS9UHjFbcrZIlSKv6PSmN8io4OZBWyE
GJC2VKb03qgLwqSnEBQUwR+lAcOCo36sfDfV33O6NQlzNMkar1kHu8EZajONTZoJ
RXmOGXGMyZrXnNWYVzyrbs+W11SfADuBRsY42C1y3nS7p+Xzn3BrZNlxYwLm+oPQ
XgUdsaNTY4QfylDESTXQZ6lusZIzeTlz2ogABzKDf5VjcZM92HHF7dH8/mFhynPF
ojzvOl7v
-----END CERTIFICATE-----

Certificate:
    Data:
        Version: 3 (0x2)
        Serial Number: 17668186462641306492 (0xf53201fa4b19bb7c)
    Signature Algorithm: sha1WithRSAEncryption
        Issuer: C=US, ST=Utah, L=Provo, O=ACME Signing Authority Inc, CN=example.com
        Validity
            Not Before: Nov 20 06:57:58 2020 GMT
            Not After : Apr  6 06:57:58 2048 GMT
        Subject: C=US, ST=Utah, L=Provo, O=ACME Tech Inc, CN=my.example.com
        Subject Public Key Info:
            Public Key Algorithm: rsaEncryption
                Public-Key: (2048 bit)
                Modulus:
                    00:cb:61:99:92:3e:5d:d4:7f:26:f0:b9:1e:0a:a8:
                    b9:0d:38:21:9b:10:29:cc:84:06:46:c6:df:93:1b:
                    cc:f6:73:7d:44:df:d5:e7:0f:22:cb:77:1d:65:a6:
                    ce:af:70:ea:48:d5:3b:a4:90:16:14:f2:e8:24:f9:
                    ed:9e:ba:a7:cc:09:b3:86:78:8c:1c:6c:f9:d7:bc:
                    4c:36:5d:b9:77:04:cb:e8:52:67:ae:23:aa:15:81:
                    cf:fa:46:ae:1c:6f:5b:ba:5f:05:1e:ca:e4:54:ee:
                    17:fb:41:94:7c:05:6f:b5:e6:4e:61:9e:6d:7e:6f:
                    df:da:e5:95:b3:b2:e6:e7:1f:7b:4d:16:d5:3d:40:
                    4e:90:b2:fa:4a:67:49:53:6d:54:29:61:9f:2e:76:
                    54:e3:45:5b:9e:34:71:6d:4d:54:32:f6:a5:e3:81:
                    93:85:93:4e:e6:2a:2f:ea:ad:d9:dc:4c:9c:cb:3d:
                    c6:7d:b6:55:f2:33:fc:21:ed:5c:b4:09:5c:84:7b:
                    87:9f:0e:d7:f4:6b:de:14:07:3e:85:df:59:80:bb:
                    a5:41:b7:2e:23:74:43:f6:ed:ec:24:bf:32:48:e4:
                    02:ab:d3:ca:16:a5:c7:a4:b0:c8:e7:21:d2:f6:b7:
                    69:73:72:77:75:0c:59:b0:a6:ef:c5:2b:7f:07:c3:
                    76:95
                Exponent: 65537 (0x10001)
        X509v3 extensions:
            X509v3 Subject Alternative Name:
                URI:spiffe://echo4, URI:spiffe://echo4-special, URI:spiffe://echo4-admin
    Signature Algorithm: sha1WithRSAEncryption
         1b:b5:6f:e6:a1:1f:8a:1e:c6:9b:8d:56:53:fa:a3:0d:a7:0a:
         1e:02:5d:15:e0:c7:78:e4:f8:3d:64:ae:10:1a:13:b7:d3:3c:
         f8:ce:93:2a:5b:40:93:67:f8:d4:61:7c:01:d4:c7:05:8f:7c:
         a0:1c:d2:6f:9e:2e:d6:4e:4f:76:67:22:a6:b8:56:f4:eb:b2:
         a8:57:40:3d:fd:a4:86:52:c6:47:1c:64:bd:50:78:c5:6d:ca:
         d9:22:54:8a:bf:a3:d2:98:df:22:a3:83:99:05:6c:84:18:90:
         b6:54:a6:f4:de:a8:0b:c2:a4:a7:10:14:14:c1:1f:a5:01:c3:
         82:a3:7e:ac:7c:37:d5:df:73:ba:35:09:73:34:c9:1a:af:59:
         07:bb:c1:19:6a:33:8d:4d:9a:09:45:79:8e:19:71:8c:c9:9a:
         d7:9c:d5:98:57:3c:ab:6e:cf:96:d7:54:9f:00:3b:81:46:c6:
         38:d8:2d:72:de:74:bb:a7:e5:f3:9f:70:6b:64:d9:71:63:02:
         e6:fa:83:d0:5e:05:1d:b1:a3:53:63:84:1f:ca:50:c4:49:35:
         d0:67:a9:6e:b1:92:33:79:39:73:da:88:00:07:32:83:7f:95:
         63:71:93:3d:d8:71:c5:ed:d1:fc:fe:61:61:ca:73:c5:a2:3c:
         ef:3a:5e:ef
