Certificate with valid SAN but signed by root-ca2

-----BEGIN CERTIFICATE-----
MIIDYzCCAkugAwIBAgIJAK8MD2DjPpBUMA0GCSqGSIb3DQEBBQUAMGcxCzAJBgNV
BAYTAlVTMQ0wCwYDVQQIDARVdGFoMQ4wDAYDVQQHDAVQcm92bzEjMCEGA1UECgwa
QUNNRSBTaWduaW5nIEF1dGhvcml0eSBJbmMxFDASBgNVBAMMC2V4YW1wbGUuY29t
MB4XDTIwMDUxMjEzMzc0M1oXDTQ3MDkyNzEzMzc0M1owXTELMAkGA1UEBhMCVVMx
DTALBgNVBAgMBFV0YWgxDjAMBgNVBAcMBVByb3ZvMRYwFAYDVQQKDA1BQ01FIFRl
Y2ggSW5jMRcwFQYDVQQDDA5teS5leGFtcGxlLmNvbTCCASIwDQYJKoZIhvcNAQEB
BQADggEPADCCAQoCggEBALdGDN6GUyxG1MyktuRoZrwJmvxP9o8X6OL9e4Ci2APx
3z85T/ufKPUczgv+bVY4QouOBcY9K7K7sKezPVxC5A8STpnE+iF+vmSpi+5bA+sy
XnarNsINXFyRcPLCWgG6Tlk8x55dfLJOJf6+BD42xFRcrScFQb9bcZ6/id1ffdYV
rtqT+IYinANG1RjoupOgTxgwovVU0pGjHjLPUbHxWVajZYfvPMrO7t2jbgngCI0z
mvy212xcr8cMWlCO0dgzgWWTDn73gMoYdl06sFmxq+dHlCLmMLkqeOXattXWbO84
NzT6/VMelOSQSAKBBNgpRdVURMkM0Bc/u/76UuAyy6UCAwEAAaMcMBowGAYDVR0R
BBEwD4YNc3BpZmZlOi8vZWNobzANBgkqhkiG9w0BAQUFAAOCAQEAAPiDzvrJrTNO
58LaUPnq9OOdieIWKN6PekSMrfJZIqPc38C3Yb+gvofkpEcdcaD6XP3CmUeWmjKj
TKNa4PPnXhM0CY9mj6TOrK25+ruj/Ua4xLf97gz1Kw811f7qg8j2VIargQa7zrl6
YOmZYzeSBADlwmHqD7eiTLGL11S7wNWGmccXxf1mpgb5tlkwz7XzJs4H503mw90u
PWMgQvilveM2c8OQEKarh6kDLkdGaLss2yBODWYQ/D9NJ8elJLUZIU69VPM6GorQ
lcF/n/c2dY2TMHJBpgPjvStQtLLJe2pH3UuXIKd5FsXRtZblCHTV5ppnRiH6j9vY
GyXoeoFntQ==
-----END CERTIFICATE-----

Certificate:
    Data:
        Version: 3 (0x2)
        Serial Number: 12613473565161721940 (0xaf0c0f60e33e9054)
    Signature Algorithm: sha1WithRSAEncryption
        Issuer: C=US, ST=Utah, L=Provo, O=ACME Signing Authority Inc, CN=example.com
        Validity
            Not Before: May 12 13:37:43 2020 GMT
            Not After : Sep 27 13:37:43 2047 GMT
        Subject: C=US, ST=Utah, L=Provo, O=ACME Tech Inc, CN=my.example.com
        Subject Public Key Info:
            Public Key Algorithm: rsaEncryption
                Public-Key: (2048 bit)
                Modulus:
                    00:b7:46:0c:de:86:53:2c:46:d4:cc:a4:b6:e4:68:
                    66:bc:09:9a:fc:4f:f6:8f:17:e8:e2:fd:7b:80:a2:
                    d8:03:f1:df:3f:39:4f:fb:9f:28:f5:1c:ce:0b:fe:
                    6d:56:38:42:8b:8e:05:c6:3d:2b:b2:bb:b0:a7:b3:
                    3d:5c:42:e4:0f:12:4e:99:c4:fa:21:7e:be:64:a9:
                    8b:ee:5b:03:eb:32:5e:76:ab:36:c2:0d:5c:5c:91:
                    70:f2:c2:5a:01:ba:4e:59:3c:c7:9e:5d:7c:b2:4e:
                    25:fe:be:04:3e:36:c4:54:5c:ad:27:05:41:bf:5b:
                    71:9e:bf:89:dd:5f:7d:d6:15:ae:da:93:f8:86:22:
                    9c:03:46:d5:18:e8:ba:93:a0:4f:18:30:a2:f5:54:
                    d2:91:a3:1e:32:cf:51:b1:f1:59:56:a3:65:87:ef:
                    3c:ca:ce:ee:dd:a3:6e:09:e0:08:8d:33:9a:fc:b6:
                    d7:6c:5c:af:c7:0c:5a:50:8e:d1:d8:33:81:65:93:
                    0e:7e:f7:80:ca:18:76:5d:3a:b0:59:b1:ab:e7:47:
                    94:22:e6:30:b9:2a:78:e5:da:b6:d5:d6:6c:ef:38:
                    37:34:fa:fd:53:1e:94:e4:90:48:02:81:04:d8:29:
                    45:d5:54:44:c9:0c:d0:17:3f:bb:fe:fa:52:e0:32:
                    cb:a5
                Exponent: 65537 (0x10001)
        X509v3 extensions:
            X509v3 Subject Alternative Name:
                URI:spiffe://echo
    Signature Algorithm: sha1WithRSAEncryption
         00:f8:83:ce:fa:c9:ad:33:4e:e7:c2:da:50:f9:ea:f4:e3:9d:
         89:e2:16:28:de:8f:7a:44:8c:ad:f2:59:22:a3:dc:df:c0:b7:
         61:bf:a0:be:87:e4:a4:47:1d:71:a0:fa:5c:fd:c2:99:47:96:
         9a:32:a3:4c:a3:5a:e0:f3:e7:5e:13:34:09:8f:66:8f:a4:ce:
         ac:ad:b9:fa:bb:a3:fd:46:b8:c4:b7:fd:ee:0c:f5:2b:0f:35:
         d5:fe:ea:83:c8:f6:54:86:ab:81:06:bb:ce:b9:7a:60:e9:99:
         63:37:92:04:00:e5:c2:61:ea:0f:b7:a2:4c:b1:8b:d7:54:bb:
         c0:d5:86:99:c7:17:c5:fd:66:a6:06:f9:b6:59:30:cf:b5:f3:
         26:ce:07:e7:4d:e6:c3:dd:2e:3d:63:20:42:f8:a5:bd:e3:36:
         73:c3:90:10:a6:ab:87:a9:03:2e:47:46:68:bb:2c:db:20:4e:
         0d:66:10:fc:3f:4d:27:c7:a5:24:b5:19:21:4e:bd:54:f3:3a:
         1a:8a:d0:95:c1:7f:9f:f7:36:75:8d:93:30:72:41:a6:03:e3:
         bd:2b:50:b4:b2:c9:7b:6a:47:dd:4b:97:20:a7:79:16:c5:d1:
         b5:96:e5:08:74:d5:e6:9a:67:46:21:fa:8f:db:d8:1b:25:e8:
         7a:81:67:b5
